target datalayout = "e-m:e-p270:32:32-p271:32:32-p272:64:64-i64:64-i128:128-f80:128-n8:16:32:64-S128"
target triple = "x86_64-pc-linux-gnu"

%struct.SurfaceDataRasInfo = type { %struct.SurfaceDataBounds, ptr, i32, i32, i32, i32, ptr, ptr, ptr, ptr, ptr, ptr, i32, %union.anon.0 }
%struct.SurfaceDataBounds = type { i32, i32, i32, i32 }
%union.anon.0 = type { ptr, [56 x i8] }

; Function Attrs: nounwind uwtable
define hidden void @ByteIndexedToUshortGrayScaleConvert(ptr noundef %0, ptr noundef %1, i32 noundef %2, i32 noundef %3, i32 noundef %4, i32 noundef %5, i32 noundef %6, i32 noundef %7, i32 noundef %8, ptr noundef %9, ptr noundef %10, ptr noundef %11, ptr noundef %12) #1 {
  %14 = alloca ptr, align 8
  %15 = alloca ptr, align 8
  %16 = alloca i32, align 4
  %17 = alloca i32, align 4
  %18 = alloca i32, align 4
  %19 = alloca i32, align 4
  %20 = alloca i32, align 4
  %21 = alloca i32, align 4
  %22 = alloca i32, align 4
  %23 = alloca ptr, align 8
  %24 = alloca ptr, align 8
  %25 = alloca ptr, align 8
  %26 = alloca ptr, align 8
  %27 = alloca [256 x i16], align 16
  %28 = alloca ptr, align 8
  %29 = alloca i32, align 4
  %30 = alloca ptr, align 8
  %31 = alloca i32, align 4
  %32 = alloca i32, align 4
  %33 = alloca i32, align 4
  %34 = alloca i32, align 4
  %35 = alloca i32, align 4
  %36 = alloca i32, align 4
  %37 = alloca i32, align 4
  %38 = alloca i32, align 4
  %39 = alloca ptr, align 8
  %40 = alloca ptr, align 8
  %41 = alloca i32, align 4
  %42 = alloca i32, align 4
  %43 = alloca i32, align 4
  %44 = alloca i32, align 4
  %45 = alloca i32, align 4
  store ptr %0, ptr %14, align 8
  store ptr %1, ptr %15, align 8
  store i32 %2, ptr %16, align 4
  store i32 %3, ptr %17, align 4
  store i32 %4, ptr %18, align 4
  store i32 %5, ptr %19, align 4
  store i32 %6, ptr %20, align 4
  store i32 %7, ptr %21, align 4
  store i32 %8, ptr %22, align 4
  store ptr %9, ptr %23, align 8
  store ptr %10, ptr %24, align 8
  store ptr %11, ptr %25, align 8
  store ptr %12, ptr %26, align 8
  br label %46

46:                                               ; preds = %13
  %47 = load ptr, ptr %23, align 8
  %48 = getelementptr inbounds %struct.SurfaceDataRasInfo, ptr %47, i32 0, i32 6
  %49 = load ptr, ptr %48, align 8
  store ptr %49, ptr %28, align 8
  %50 = load ptr, ptr %23, align 8
  %51 = getelementptr inbounds %struct.SurfaceDataRasInfo, ptr %50, i32 0, i32 5
  %52 = load i32, ptr %51, align 4
  store i32 %52, ptr %29, align 4
  %53 = load i32, ptr %29, align 4
  %54 = icmp uge i32 %53, 256
  br i1 %54, label %55, label %56

55:                                               ; preds = %46
  store i32 256, ptr %29, align 4
  br label %83

56:                                               ; preds = %46
  %57 = load i32, ptr %29, align 4
  %58 = zext i32 %57 to i64
  %59 = getelementptr inbounds [256 x i16], ptr %27, i64 0, i64 %58
  store ptr %59, ptr %30, align 8
  br label %60

60:                                               ; preds = %77, %56
  br label %61

61:                                               ; preds = %60
  br label %62

62:                                               ; preds = %61
  store i32 0, ptr %33, align 4
  store i32 0, ptr %32, align 4
  store i32 0, ptr %31, align 4
  br label %63

63:                                               ; preds = %62
  %64 = load i32, ptr %31, align 4
  %65 = mul nsw i32 19672, %64
  %66 = load i32, ptr %32, align 4
  %67 = mul nsw i32 38621, %66
  %68 = add nsw i32 %65, %67
  %69 = load i32, ptr %33, align 4
  %70 = mul nsw i32 7500, %69
  %71 = add nsw i32 %68, %70
  %72 = sdiv i32 %71, 256
  %73 = trunc i32 %72 to i16
  %74 = load ptr, ptr %30, align 8
  %75 = getelementptr inbounds i16, ptr %74, i64 0
  store i16 %73, ptr %75, align 2
  br label %76

76:                                               ; preds = %63
  br label %77

77:                                               ; preds = %76
  %78 = load ptr, ptr %30, align 8
  %79 = getelementptr inbounds i16, ptr %78, i32 1
  store ptr %79, ptr %30, align 8
  %80 = getelementptr inbounds [256 x i16], ptr %27, i64 0, i64 256
  %81 = icmp ult ptr %79, %80
  br i1 %81, label %60, label %82, !llvm.loop !27

82:                                               ; preds = %77
  br label %83

83:                                               ; preds = %82, %55
  br label %84

84:                                               ; preds = %83
  store i32 0, ptr %34, align 4
  br label %85

85:                                               ; preds = %118, %84
  br label %86

86:                                               ; preds = %85
  %87 = load ptr, ptr %28, align 8
  %88 = load i32, ptr %34, align 4
  %89 = zext i32 %88 to i64
  %90 = getelementptr inbounds i32, ptr %87, i64 %89
  %91 = load i32, ptr %90, align 4
  store i32 %91, ptr %35, align 4
  br label %92

92:                                               ; preds = %86
  br label %93

93:                                               ; preds = %92
  %94 = load i32, ptr %35, align 4
  %95 = and i32 %94, 255
  store i32 %95, ptr %38, align 4
  %96 = load i32, ptr %35, align 4
  %97 = ashr i32 %96, 8
  %98 = and i32 %97, 255
  store i32 %98, ptr %37, align 4
  %99 = load i32, ptr %35, align 4
  %100 = ashr i32 %99, 16
  %101 = and i32 %100, 255
  store i32 %101, ptr %36, align 4
  br label %102

102:                                              ; preds = %93
  %103 = load i32, ptr %36, align 4
  %104 = mul nsw i32 19672, %103
  %105 = load i32, ptr %37, align 4
  %106 = mul nsw i32 38621, %105
  %107 = add nsw i32 %104, %106
  %108 = load i32, ptr %38, align 4
  %109 = mul nsw i32 7500, %108
  %110 = add nsw i32 %107, %109
  %111 = sdiv i32 %110, 256
  %112 = trunc i32 %111 to i16
  %113 = load i32, ptr %34, align 4
  %114 = zext i32 %113 to i64
  %115 = getelementptr inbounds [256 x i16], ptr %27, i64 0, i64 %114
  store i16 %112, ptr %115, align 2
  br label %116

116:                                              ; preds = %102
  br label %117

117:                                              ; preds = %116
  br label %118

118:                                              ; preds = %117
  %119 = load i32, ptr %34, align 4
  %120 = add i32 %119, 1
  store i32 %120, ptr %34, align 4
  %121 = load i32, ptr %29, align 4
  %122 = icmp ult i32 %120, %121
  br i1 %122, label %85, label %123, !llvm.loop !28

123:                                              ; preds = %118
  br label %124

124:                                              ; preds = %123
  br label %125

125:                                              ; preds = %124
  br label %126

126:                                              ; preds = %125
  %127 = load ptr, ptr %15, align 8
  store ptr %127, ptr %40, align 8
  %128 = load ptr, ptr %23, align 8
  %129 = getelementptr inbounds %struct.SurfaceDataRasInfo, ptr %128, i32 0, i32 4
  %130 = load i32, ptr %129, align 8
  store i32 %130, ptr %41, align 4
  %131 = load ptr, ptr %24, align 8
  %132 = getelementptr inbounds %struct.SurfaceDataRasInfo, ptr %131, i32 0, i32 4
  %133 = load i32, ptr %132, align 8
  store i32 %133, ptr %42, align 4
  %134 = load i32, ptr %16, align 4
  %135 = mul i32 %134, 2
  %136 = load i32, ptr %42, align 4
  %137 = sub i32 %136, %135
  store i32 %137, ptr %42, align 4
  br label %138

138:                                              ; preds = %187, %126
  %139 = load i32, ptr %16, align 4
  store i32 %139, ptr %43, align 4
  %140 = load i32, ptr %18, align 4
  store i32 %140, ptr %44, align 4
  %141 = load ptr, ptr %14, align 8
  %142 = ptrtoint ptr %141 to i64
  %143 = load i32, ptr %19, align 4
  %144 = load i32, ptr %22, align 4
  %145 = ashr i32 %143, %144
  %146 = sext i32 %145 to i64
  %147 = load i32, ptr %41, align 4
  %148 = sext i32 %147 to i64
  %149 = mul nsw i64 %146, %148
  %150 = add nsw i64 %142, %149
  %151 = inttoptr i64 %150 to ptr
  store ptr %151, ptr %39, align 8
  br label %152

152:                                              ; preds = %173, %138
  %153 = load i32, ptr %44, align 4
  %154 = load i32, ptr %22, align 4
  %155 = ashr i32 %153, %154
  store i32 %155, ptr %45, align 4
  %156 = load ptr, ptr %39, align 8
  %157 = load i32, ptr %45, align 4
  %158 = sext i32 %157 to i64
  %159 = getelementptr inbounds i8, ptr %156, i64 %158
  %160 = load i8, ptr %159, align 1
  %161 = zext i8 %160 to i64
  %162 = getelementptr inbounds [256 x i16], ptr %27, i64 0, i64 %161
  %163 = load i16, ptr %162, align 2
  %164 = load ptr, ptr %40, align 8
  %165 = getelementptr inbounds i16, ptr %164, i64 0
  store i16 %163, ptr %165, align 2
  %166 = load ptr, ptr %40, align 8
  %167 = ptrtoint ptr %166 to i64
  %168 = add nsw i64 %167, 2
  %169 = inttoptr i64 %168 to ptr
  store ptr %169, ptr %40, align 8
  %170 = load i32, ptr %20, align 4
  %171 = load i32, ptr %44, align 4
  %172 = add nsw i32 %171, %170
  store i32 %172, ptr %44, align 4
  br label %173

173:                                              ; preds = %152
  %174 = load i32, ptr %43, align 4
  %175 = add i32 %174, -1
  store i32 %175, ptr %43, align 4
  %176 = icmp ugt i32 %175, 0
  br i1 %176, label %152, label %177, !llvm.loop !29

177:                                              ; preds = %173
  %178 = load ptr, ptr %40, align 8
  %179 = ptrtoint ptr %178 to i64
  %180 = load i32, ptr %42, align 4
  %181 = sext i32 %180 to i64
  %182 = add nsw i64 %179, %181
  %183 = inttoptr i64 %182 to ptr
  store ptr %183, ptr %40, align 8
  %184 = load i32, ptr %21, align 4
  %185 = load i32, ptr %19, align 4
  %186 = add nsw i32 %185, %184
  store i32 %186, ptr %19, align 4
  br label %187

187:                                              ; preds = %177
  %188 = load i32, ptr %17, align 4
  %189 = add i32 %188, -1
  store i32 %189, ptr %17, align 4
  %190 = icmp ugt i32 %189, 0
  br i1 %190, label %138, label %191, !llvm.loop !30

191:                                              ; preds = %187
  br label %192

192:                                              ; preds = %191
  ret void
}