; Function Attrs: nofree norecurse nosync nounwind memory(readwrite, inaccessiblemem: none) uwtable
define hidden void @ByteIndexedToUshortGrayScaleConvert(ptr noundef %0, ptr noundef %1, i32 noundef %2, i32 noundef %3, i32 noundef %4, i32 noundef %5, i32 noundef %6, i32 noundef %7, i32 noundef %8, ptr nocapture noundef readonly %9, ptr nocapture noundef readonly %10, ptr nocapture readnone %11, ptr nocapture readnone %12) #1 {
  %14 = alloca [256 x i16], align 16
  %15 = getelementptr inbounds i8, ptr %9, i64 40
  %16 = load ptr, ptr %15, align 8
  %17 = getelementptr inbounds i8, ptr %9, i64 36
  %18 = load i32, ptr %17, align 4
  %19 = icmp ugt i32 %18, 255
  br i1 %19, label %.loopexit, label %.loopexit.loopexit

.loopexit.loopexit:                               ; preds = %13
  %20 = shl nuw nsw i32 %18, 1
  %.idx = zext nneg i32 %20 to i64
  %scevgep = getelementptr i8, ptr %14, i64 %.idx
  %21 = sub nuw nsw i64 512, %.idx
  call void @llvm.memset.p0.i64(ptr align 2 %scevgep, i8 0, i64 %21, i1 false)
  br label %.loopexit

.loopexit:                                        ; preds = %.loopexit.loopexit, %13
  %.048 = phi i32 [ 256, %13 ], [ %18, %.loopexit.loopexit ]
  %umax = tail call i32 @llvm.umax.i32(i32 %.048, i32 1)
  %wide.trip.count = zext nneg i32 %umax to i64
  br label %22

22:                                               ; preds = %22, %.loopexit
  %indvars.iv = phi i64 [ %indvars.iv.next, %22 ], [ 0, %.loopexit ]
  %23 = getelementptr inbounds i32, ptr %16, i64 %indvars.iv
  %24 = load i32, ptr %23, align 4
  %25 = and i32 %24, 255
  %26 = lshr i32 %24, 8
  %27 = and i32 %26, 255
  %28 = lshr i32 %24, 16
  %29 = and i32 %28, 255
  %30 = mul nuw nsw i32 %29, 19672
  %31 = mul nuw nsw i32 %27, 38621
  %32 = mul nuw nsw i32 %25, 7500
  %33 = add nuw nsw i32 %31, %32
  %34 = add nuw nsw i32 %33, %30
  %35 = lshr i32 %34, 8
  %36 = trunc nuw i32 %35 to i16
  %37 = getelementptr inbounds [256 x i16], ptr %14, i64 0, i64 %indvars.iv
  store i16 %36, ptr %37, align 2
  %indvars.iv.next = add nuw nsw i64 %indvars.iv, 1
  %exitcond.not = icmp eq i64 %indvars.iv.next, %wide.trip.count
  br i1 %exitcond.not, label %38, label %22, !llvm.loop !26

38:                                               ; preds = %22
  %39 = getelementptr inbounds i8, ptr %9, i64 32
  %40 = load i32, ptr %39, align 8
  %41 = getelementptr inbounds i8, ptr %10, i64 32
  %42 = load i32, ptr %41, align 8
  %43 = shl i32 %2, 1
  %44 = sub i32 %42, %43
  %45 = sext i32 %44 to i64
  %46 = ptrtoint ptr %0 to i64
  %47 = sext i32 %40 to i64
  br label %48

48:                                               ; preds = %67, %38
  %.047 = phi ptr [ %1, %38 ], [ %69, %67 ]
  %.046 = phi i32 [ %5, %38 ], [ %70, %67 ]
  %.0 = phi i32 [ %3, %38 ], [ %71, %67 ]
  %49 = ashr i32 %.046, %8
  %50 = sext i32 %49 to i64
  %51 = mul nsw i64 %50, %47
  %52 = add nsw i64 %51, %46
  %53 = inttoptr i64 %52 to ptr
  br label %54

54:                                               ; preds = %54, %48
  %.1 = phi ptr [ %.047, %48 ], [ %64, %54 ]
  %.045 = phi i32 [ %2, %48 ], [ %66, %54 ]
  %.044 = phi i32 [ %4, %48 ], [ %65, %54 ]
  %55 = ashr i32 %.044, %8
  %56 = sext i32 %55 to i64
  %57 = getelementptr inbounds i8, ptr %53, i64 %56
  %58 = load i8, ptr %57, align 1
  %59 = zext i8 %58 to i64
  %60 = getelementptr inbounds [256 x i16], ptr %14, i64 0, i64 %59
  %61 = load i16, ptr %60, align 2
  store i16 %61, ptr %.1, align 2
  %62 = ptrtoint ptr %.1 to i64
  %63 = add nsw i64 %62, 2
  %64 = inttoptr i64 %63 to ptr
  %65 = add nsw i32 %.044, %6
  %66 = add i32 %.045, -1
  %.not = icmp eq i32 %66, 0
  br i1 %.not, label %67, label %54, !llvm.loop !27

67:                                               ; preds = %54
  %68 = add nsw i64 %63, %45
  %69 = inttoptr i64 %68 to ptr
  %70 = add nsw i32 %.046, %7
  %71 = add i32 %.0, -1
  %.not54 = icmp eq i32 %71, 0
  br i1 %.not54, label %72, label %48, !llvm.loop !28

72:                                               ; preds = %67
  ret void
}